target datalayout = "e-m:e-p270:32:32-p271:32:32-p272:64:64-i64:64-i128:128-f80:128-n8:16:32:64-S128"
target triple = "x86_64-pc-linux-gnu"

%"struct.std::_Vector_base.9" = type { %"struct.std::_Vector_base<char, std::allocator<char>>::_Vector_impl" }
%"struct.std::_Vector_base<char, std::allocator<char>>::_Vector_impl" = type { %"struct.std::_Vector_base<char, std::allocator<char>>::_Vector_impl_data" }
%"struct.std::_Vector_base<char, std::allocator<char>>::_Vector_impl_data" = type { ptr, ptr, ptr }
%"class.cv::gapi::s11n::ByteMemoryInStream" = type { %"struct.cv::gapi::s11n::IIStream", ptr, i64 }
%"struct.cv::gapi::s11n::IIStream" = type { ptr }

; Function Attrs: mustprogress nounwind uwtable
define linkonce_odr hidden void @_ZN2cv4util23suppress_unused_warningIbEEvRKT_(ptr noundef nonnull align 1 dereferenceable(1) %0) #9 comdat {
  %2 = alloca ptr, align 8
  store ptr %0, ptr %2, align 8, !tbaa !207
  ret void
}

; Function Attrs: mustprogress nounwind uwtable
define linkonce_odr hidden noundef nonnull align 1 dereferenceable(1) ptr @_ZNKSt6vectorIcSaIcEEixEm(ptr noundef nonnull align 8 dereferenceable(24) %0, i64 noundef %1) #9 comdat align 2 {
  %3 = alloca ptr, align 8
  %4 = alloca i64, align 8
  store ptr %0, ptr %3, align 8, !tbaa !141
  store i64 %1, ptr %4, align 8, !tbaa !128
  %5 = load ptr, ptr %3, align 8
  %6 = getelementptr inbounds nuw %"struct.std::_Vector_base.9", ptr %5, i32 0, i32 0
  %7 = getelementptr inbounds nuw %"struct.std::_Vector_base<char, std::allocator<char>>::_Vector_impl_data", ptr %6, i32 0, i32 0
  %8 = load ptr, ptr %7, align 8, !tbaa !143
  %9 = load i64, ptr %4, align 8, !tbaa !128
  %10 = getelementptr inbounds nuw i8, ptr %8, i64 %9
  ret ptr %10
}

; Function Attrs: mustprogress nounwind uwtable
define linkonce_odr hidden void @_ZN2cv4gapi4s11n18ByteMemoryInStream5checkEm(ptr noundef nonnull align 8 dereferenceable(24) %0, i64 noundef %1) #9 comdat align 2 {
  %3 = alloca ptr, align 8
  %4 = alloca i64, align 8
  %5 = alloca i8, align 1
  store ptr %0, ptr %3, align 8, !tbaa !366
  store i64 %1, ptr %4, align 8, !tbaa !128
  call void @llvm.lifetime.start.p0(i64 1, ptr %5) #3
  store i8 0, ptr %5, align 1, !tbaa !199
  call void @_ZN2cv4util23suppress_unused_warningIbEEvRKT_(ptr noundef nonnull align 1 dereferenceable(1) %5)
  call void @llvm.lifetime.end.p0(i64 1, ptr %5) #3
  ret void
}

; Function Attrs: mustprogress uwtable
define noundef nonnull align 8 dereferenceable(8) ptr @_ZN2cv4gapi4s11n18ByteMemoryInStreamrsERj(ptr noundef nonnull align 8 dereferenceable(24) %0, ptr noundef nonnull align 4 dereferenceable(4) %1) unnamed_addr #4 align 2 {
  %3 = alloca ptr, align 8
  %4 = alloca ptr, align 8
  %5 = alloca [4 x i8], align 1
  store ptr %0, ptr %3, align 8, !tbaa !366
  store ptr %1, ptr %4, align 8, !tbaa !76
  %6 = load ptr, ptr %3, align 8
  call void @_ZN2cv4gapi4s11n18ByteMemoryInStream5checkEm(ptr noundef nonnull align 8 dereferenceable(24) %6, i64 noundef 4)
  call void @llvm.lifetime.start.p0(i64 4, ptr %5) #3
  %7 = getelementptr inbounds nuw %"class.cv::gapi::s11n::ByteMemoryInStream", ptr %6, i32 0, i32 1
  %8 = load ptr, ptr %7, align 8, !tbaa !371
  %9 = getelementptr inbounds nuw %"class.cv::gapi::s11n::ByteMemoryInStream", ptr %6, i32 0, i32 2
  %10 = load i64, ptr %9, align 8, !tbaa !368
  %11 = add i64 %10, 1
  store i64 %11, ptr %9, align 8, !tbaa !368
  %12 = call noundef nonnull align 1 dereferenceable(1) ptr @_ZNKSt6vectorIcSaIcEEixEm(ptr noundef nonnull align 8 dereferenceable(24) %8, i64 noundef %10) #3
  %13 = load i8, ptr %12, align 1, !tbaa !146
  %14 = getelementptr inbounds [4 x i8], ptr %5, i64 0, i64 0
  store i8 %13, ptr %14, align 1, !tbaa !146
  %15 = getelementptr inbounds nuw %"class.cv::gapi::s11n::ByteMemoryInStream", ptr %6, i32 0, i32 1
  %16 = load ptr, ptr %15, align 8, !tbaa !371
  %17 = getelementptr inbounds nuw %"class.cv::gapi::s11n::ByteMemoryInStream", ptr %6, i32 0, i32 2
  %18 = load i64, ptr %17, align 8, !tbaa !368
  %19 = add i64 %18, 1
  store i64 %19, ptr %17, align 8, !tbaa !368
  %20 = call noundef nonnull align 1 dereferenceable(1) ptr @_ZNKSt6vectorIcSaIcEEixEm(ptr noundef nonnull align 8 dereferenceable(24) %16, i64 noundef %18) #3
  %21 = load i8, ptr %20, align 1, !tbaa !146
  %22 = getelementptr inbounds [4 x i8], ptr %5, i64 0, i64 1
  store i8 %21, ptr %22, align 1, !tbaa !146
  %23 = getelementptr inbounds nuw %"class.cv::gapi::s11n::ByteMemoryInStream", ptr %6, i32 0, i32 1
  %24 = load ptr, ptr %23, align 8, !tbaa !371
  %25 = getelementptr inbounds nuw %"class.cv::gapi::s11n::ByteMemoryInStream", ptr %6, i32 0, i32 2
  %26 = load i64, ptr %25, align 8, !tbaa !368
  %27 = add i64 %26, 1
  store i64 %27, ptr %25, align 8, !tbaa !368
  %28 = call noundef nonnull align 1 dereferenceable(1) ptr @_ZNKSt6vectorIcSaIcEEixEm(ptr noundef nonnull align 8 dereferenceable(24) %24, i64 noundef %26) #3
  %29 = load i8, ptr %28, align 1, !tbaa !146
  %30 = getelementptr inbounds [4 x i8], ptr %5, i64 0, i64 2
  store i8 %29, ptr %30, align 1, !tbaa !146
  %31 = getelementptr inbounds nuw %"class.cv::gapi::s11n::ByteMemoryInStream", ptr %6, i32 0, i32 1
  %32 = load ptr, ptr %31, align 8, !tbaa !371
  %33 = getelementptr inbounds nuw %"class.cv::gapi::s11n::ByteMemoryInStream", ptr %6, i32 0, i32 2
  %34 = load i64, ptr %33, align 8, !tbaa !368
  %35 = add i64 %34, 1
  store i64 %35, ptr %33, align 8, !tbaa !368
  %36 = call noundef nonnull align 1 dereferenceable(1) ptr @_ZNKSt6vectorIcSaIcEEixEm(ptr noundef nonnull align 8 dereferenceable(24) %32, i64 noundef %34) #3
  %37 = load i8, ptr %36, align 1, !tbaa !146
  %38 = getelementptr inbounds [4 x i8], ptr %5, i64 0, i64 3
  store i8 %37, ptr %38, align 1, !tbaa !146
  %39 = getelementptr inbounds [4 x i8], ptr %5, i64 0, i64 0
  %40 = load i8, ptr %39, align 1, !tbaa !146
  %41 = zext i8 %40 to i32
  %42 = getelementptr inbounds [4 x i8], ptr %5, i64 0, i64 1
  %43 = load i8, ptr %42, align 1, !tbaa !146
  %44 = zext i8 %43 to i32
  %45 = shl i32 %44, 8
  %46 = or i32 %41, %45
  %47 = getelementptr inbounds [4 x i8], ptr %5, i64 0, i64 2
  %48 = load i8, ptr %47, align 1, !tbaa !146
  %49 = zext i8 %48 to i32
  %50 = shl i32 %49, 16
  %51 = or i32 %46, %50
  %52 = getelementptr inbounds [4 x i8], ptr %5, i64 0, i64 3
  %53 = load i8, ptr %52, align 1, !tbaa !146
  %54 = zext i8 %53 to i32
  %55 = shl i32 %54, 24
  %56 = or i32 %51, %55
  %57 = load ptr, ptr %4, align 8, !tbaa !76
  store i32 %56, ptr %57, align 4, !tbaa !67
  call void @llvm.lifetime.end.p0(i64 4, ptr %5) #3
  ret ptr %6
}

; Function Attrs: mustprogress uwtable
define linkonce_odr hidden noundef i32 @_ZN2cv4gapi4s11n18ByteMemoryInStream6getU32Ev(ptr noundef nonnull align 8 dereferenceable(24) %0) #4 comdat align 2 {
  %2 = alloca ptr, align 8
  %3 = alloca i32, align 4
  store ptr %0, ptr %2, align 8, !tbaa !366
  %4 = load ptr, ptr %2, align 8
  call void @llvm.lifetime.start.p0(i64 4, ptr %3) #3
  store i32 0, ptr %3, align 4, !tbaa !67
  %5 = call noundef nonnull align 8 dereferenceable(8) ptr @_ZN2cv4gapi4s11n18ByteMemoryInStreamrsERj(ptr noundef nonnull align 8 dereferenceable(24) %4, ptr noundef nonnull align 4 dereferenceable(4) %3)
  %6 = load i32, ptr %3, align 4, !tbaa !67
  call void @llvm.lifetime.end.p0(i64 4, ptr %3) #3
  ret i32 %6
}

; Function Attrs: mustprogress uwtable
define noundef nonnull align 8 dereferenceable(8) ptr @_ZN2cv4gapi4s11n18ByteMemoryInStreamrsERi(ptr noundef nonnull align 8 dereferenceable(24) %0, ptr noundef nonnull align 4 dereferenceable(4) %1) unnamed_addr #4 align 2 {
  %3 = alloca ptr, align 8
  %4 = alloca ptr, align 8
  store ptr %0, ptr %3, align 8, !tbaa !366
  store ptr %1, ptr %4, align 8, !tbaa !76
  %5 = load ptr, ptr %3, align 8
  %6 = call noundef i32 @_ZN2cv4gapi4s11n18ByteMemoryInStream6getU32Ev(ptr noundef nonnull align 8 dereferenceable(24) %5)
  %7 = load ptr, ptr %4, align 8, !tbaa !76
  store i32 %6, ptr %7, align 4, !tbaa !67
  ret ptr %5
}