; Function Attrs: mustprogress nofree norecurse nosync nounwind willreturn memory(read, argmem: readwrite, inaccessiblemem: none) uwtable
define noundef nonnull align 8 dereferenceable(8) ptr @_ZN2cv4gapi4s11n18ByteMemoryInStreamrsERi(ptr noundef nonnull returned align 8 dereferenceable(24) %0, ptr noundef nonnull writeonly align 4 captures(none) dereferenceable(4) initializes((0, 4)) %1) unnamed_addr #14 align 2 {
  %3 = getelementptr inbounds nuw i8, ptr %0, i64 8
  %4 = load ptr, ptr %3, align 8, !tbaa !648
  %5 = getelementptr inbounds nuw i8, ptr %0, i64 16
  %6 = load i64, ptr %5, align 8, !tbaa !645
  %7 = add i64 %6, 1
  store i64 %7, ptr %5, align 8, !tbaa !645
  %8 = load ptr, ptr %4, align 8, !tbaa !124
  %9 = getelementptr inbounds nuw i8, ptr %8, i64 %6
  %10 = load i8, ptr %9, align 1, !tbaa !56
  %11 = add i64 %6, 2
  store i64 %11, ptr %5, align 8, !tbaa !645
  %12 = getelementptr inbounds nuw i8, ptr %8, i64 %7
  %13 = load i8, ptr %12, align 1, !tbaa !56
  %14 = add i64 %6, 3
  store i64 %14, ptr %5, align 8, !tbaa !645
  %15 = getelementptr inbounds nuw i8, ptr %8, i64 %11
  %16 = load i8, ptr %15, align 1, !tbaa !56
  %17 = add i64 %6, 4
  store i64 %17, ptr %5, align 8, !tbaa !645
  %18 = getelementptr inbounds nuw i8, ptr %8, i64 %14
  %19 = load i8, ptr %18, align 1, !tbaa !56
  %20 = zext i8 %10 to i32
  %21 = zext i8 %13 to i32
  %22 = shl nuw nsw i32 %21, 8
  %23 = or disjoint i32 %22, %20
  %24 = zext i8 %16 to i32
  %25 = shl nuw nsw i32 %24, 16
  %26 = or disjoint i32 %23, %25
  %27 = zext i8 %19 to i32
  %28 = shl nuw i32 %27, 24
  %29 = or disjoint i32 %26, %28
  store i32 %29, ptr %1, align 4, !tbaa !38
  ret ptr %0
}